; Function Attrs: mustprogress uwtable
define void @_ZNK6casadi7UnaryMX7eval_mxERKSt6vectorINS_2MXESaIS2_EERS4_(ptr noundef nonnull readonly align 8 captures(none) dereferenceable(68) %0, ptr noundef nonnull readonly align 8 captures(none) dereferenceable(24) %1, ptr noundef nonnull readonly align 8 captures(none) dereferenceable(24) %2) unnamed_addr #3 align 2 personality ptr @__gxx_personality_v0 {
  %4 = alloca %"class.casadi::MX", align 8
  call void @llvm.lifetime.start.p0(i64 8, ptr nonnull %4) #21
  call void @_ZN6casadi2MXC1Ev(ptr noundef nonnull align 8 dereferenceable(8) %4)
  %5 = getelementptr inbounds nuw i8, ptr %0, i64 64
  %6 = load i32, ptr %5, align 8, !tbaa !6
  %7 = trunc i32 %6 to i8
  %8 = load ptr, ptr %1, align 8, !tbaa !111
  %9 = load ptr, ptr %2, align 8, !tbaa !111
  invoke void @_ZN6casadi11casadi_mathINS_2MXEE3funEhRKS1_S4_RS1_(i8 noundef zeroext %7, ptr noundef nonnull align 8 dereferenceable(8) %8, ptr noundef nonnull align 8 dereferenceable(8) %4, ptr noundef nonnull align 8 dereferenceable(8) %9)
          to label %10 unwind label %11

10:                                               ; preds = %3
  call void @_ZN6casadi2MXD1Ev(ptr noundef nonnull align 8 dereferenceable(8) %4) #21
  call void @llvm.lifetime.end.p0(i64 8, ptr nonnull %4) #21
  ret void

11:                                               ; preds = %3
  %12 = landingpad { ptr, i32 }
          cleanup
  call void @_ZN6casadi2MXD1Ev(ptr noundef nonnull align 8 dereferenceable(8) %4) #21
  call void @llvm.lifetime.end.p0(i64 8, ptr nonnull %4) #21
  resume { ptr, i32 } %12
}